; Function Attrs: mustprogress uwtable
define noundef i32 @_ZN6icu_776number4impl19NumberFormatterImpl21getPrefixSuffixStaticERKNS1_10MacroPropsENS1_6SignumENS_14StandardPlural4FormERNS_22FormattedStringBuilderER10UErrorCode(ptr noundef nonnull align 8 dereferenceable(472) %0, i32 noundef %1, i32 noundef %2, ptr noundef nonnull align 8 dereferenceable(136) %3, ptr noundef nonnull align 4 dereferenceable(4) %4) local_unnamed_addr #1 align 2 personality ptr @__gxx_personality_v0 {
  %6 = alloca %"class.icu_77::number::impl::NumberFormatterImpl", align 8
  call void @llvm.lifetime.start.p0(i64 600, ptr nonnull %6) #16
  call void @_ZN6icu_776number4impl19NumberFormatterImplC1ERKNS1_10MacroPropsEbR10UErrorCode(ptr noundef nonnull align 8 dereferenceable(600) %6, ptr noundef nonnull align 8 dereferenceable(472) %0, i1 noundef zeroext false, ptr noundef nonnull align 4 dereferenceable(4) %4)
  %7 = load i32, ptr %4, align 4, !tbaa !13
  %8 = icmp slt i32 %7, 1
  br i1 %8, label %9, label %_ZN6icu_776number4impl19NumberFormatterImpl21getPrefixSuffixUnsafeENS1_6SignumENS_14StandardPlural4FormERNS_22FormattedStringBuilderER10UErrorCode.exit

9:                                                ; preds = %5
  %10 = getelementptr inbounds nuw i8, ptr %6, i64 552
  %11 = load ptr, ptr %10, align 8, !tbaa !99
  invoke void @_ZN6icu_776number4impl22MutablePatternModifier19setNumberPropertiesENS1_6SignumENS_14StandardPlural4FormE(ptr noundef nonnull align 8 dereferenceable(392) %11, i32 noundef %1, i32 noundef %2)
          to label %.noexc unwind label %25

.noexc:                                           ; preds = %9
  %12 = load ptr, ptr %10, align 8, !tbaa !99
  %13 = load ptr, ptr %12, align 8, !tbaa !93
  %14 = getelementptr inbounds nuw i8, ptr %13, i64 24
  %15 = load ptr, ptr %14, align 8
  %16 = invoke noundef i32 %15(ptr noundef nonnull align 8 dereferenceable(392) %12, ptr noundef nonnull align 8 dereferenceable(136) %3, i32 noundef 0, i32 noundef 0, ptr noundef nonnull align 4 dereferenceable(4) %4)
          to label %.noexc7 unwind label %25

.noexc7:                                          ; preds = %.noexc
  %17 = load i32, ptr %4, align 4, !tbaa !13
  %18 = icmp slt i32 %17, 1
  br i1 %18, label %19, label %_ZN6icu_776number4impl19NumberFormatterImpl21getPrefixSuffixUnsafeENS1_6SignumENS_14StandardPlural4FormERNS_22FormattedStringBuilderER10UErrorCode.exit

19:                                               ; preds = %.noexc7
  %20 = load ptr, ptr %10, align 8, !tbaa !99
  %21 = load ptr, ptr %20, align 8, !tbaa !93
  %22 = getelementptr inbounds nuw i8, ptr %21, i64 32
  %23 = load ptr, ptr %22, align 8
  %24 = invoke noundef i32 %23(ptr noundef nonnull align 8 dereferenceable(392) %20)
          to label %_ZN6icu_776number4impl19NumberFormatterImpl21getPrefixSuffixUnsafeENS1_6SignumENS_14StandardPlural4FormERNS_22FormattedStringBuilderER10UErrorCode.exit unwind label %25

_ZN6icu_776number4impl19NumberFormatterImpl21getPrefixSuffixUnsafeENS1_6SignumENS_14StandardPlural4FormERNS_22FormattedStringBuilderER10UErrorCode.exit: ; preds = %.noexc7, %5, %19
  %.0.i = phi i32 [ 0, %5 ], [ 0, %.noexc7 ], [ %24, %19 ]
  call void @_ZN6icu_776number4impl19NumberFormatterImplD2Ev(ptr noundef nonnull align 8 dereferenceable(600) %6) #16
  call void @llvm.lifetime.end.p0(i64 600, ptr nonnull %6) #16
  ret i32 %.0.i

25:                                               ; preds = %19, %.noexc, %9
  %26 = landingpad { ptr, i32 }
          cleanup
  call void @_ZN6icu_776number4impl19NumberFormatterImplD2Ev(ptr noundef nonnull align 8 dereferenceable(600) %6) #16
  call void @llvm.lifetime.end.p0(i64 600, ptr nonnull %6) #16
  resume { ptr, i32 } %26
}